target datalayout = "e-m:e-p270:32:32-p271:32:32-p272:64:64-i64:64-i128:128-f80:128-n8:16:32:64-S128"
target triple = "x86_64-pc-linux-gnu"

%struct.RelFileLocator = type { i32, i32, i32 }
%struct.FakeRelCacheEntryData = type { %struct.RelationData, %struct.FormData_pg_class }
%struct.RelationData = type { %struct.RelFileLocator, ptr, i32, i32, i8, i8, i8, i8, i8, i32, i32, i32, i32, ptr, ptr, i32, %struct.LockInfoData, ptr, ptr, ptr, ptr, ptr, i8, ptr, ptr, ptr, ptr, ptr, ptr, i32, ptr, i8, ptr, ptr, i32, i8, i32, ptr, i8, ptr, ptr, ptr, ptr, ptr, ptr, ptr, i32, ptr, ptr, ptr, ptr, ptr, ptr, ptr, ptr, ptr, ptr, ptr, ptr, ptr, ptr, ptr, ptr, ptr, ptr, ptr, i32, i8, ptr }
%struct.LockInfoData = type { %struct.LockRelId }
%struct.LockRelId = type { i32, i32 }
%struct.FormData_pg_class = type { i32, %struct.nameData, i32, i32, i32, i32, i32, i32, i32, i32, float, i32, i32, i8, i8, i8, i8, i16, i16, i8, i8, i8, i8, i8, i8, i8, i8, i32, i32, i32 }
%struct.nameData = type { [64 x i8] }

@.str.6 = private unnamed_addr constant [3 x i8] c"%u\00", align 1

; Function Attrs: nounwind uwtable
define dso_local ptr @CreateFakeRelcacheEntry(i64 %0, i32 %1) #0 {
  %3 = alloca %struct.RelFileLocator, align 4
  %4 = alloca { i64, i32 }, align 4
  %5 = alloca ptr, align 8
  %6 = alloca ptr, align 8
  %7 = alloca { i64, i32 }, align 4
  %8 = getelementptr inbounds nuw { i64, i32 }, ptr %4, i32 0, i32 0
  store i64 %0, ptr %8, align 4
  %9 = getelementptr inbounds nuw { i64, i32 }, ptr %4, i32 0, i32 1
  store i32 %1, ptr %9, align 4
  call void @llvm.memcpy.p0.p0.i64(ptr align 4 %3, ptr align 4 %4, i64 12, i1 false)
  call void @llvm.lifetime.start.p0(i64 8, ptr %5) #10
  call void @llvm.lifetime.start.p0(i64 8, ptr %6) #10
  %10 = call ptr @palloc0(i64 noundef 632)
  store ptr %10, ptr %5, align 8
  %11 = load ptr, ptr %5, align 8
  store ptr %11, ptr %6, align 8
  %12 = load ptr, ptr %5, align 8
  %13 = getelementptr inbounds nuw %struct.FakeRelCacheEntryData, ptr %12, i32 0, i32 1
  %14 = load ptr, ptr %6, align 8
  %15 = getelementptr inbounds nuw %struct.RelationData, ptr %14, i32 0, i32 13
  store ptr %13, ptr %15, align 8
  %16 = load ptr, ptr %6, align 8
  %17 = getelementptr inbounds nuw %struct.RelationData, ptr %16, i32 0, i32 0
  call void @llvm.memcpy.p0.p0.i64(ptr align 8 %17, ptr align 4 %3, i64 12, i1 false)
  %18 = load ptr, ptr %6, align 8
  %19 = getelementptr inbounds nuw %struct.RelationData, ptr %18, i32 0, i32 3
  store i32 -1, ptr %19, align 4
  %20 = load ptr, ptr %6, align 8
  %21 = getelementptr inbounds nuw %struct.RelationData, ptr %20, i32 0, i32 13
  %22 = load ptr, ptr %21, align 8
  %23 = getelementptr inbounds nuw %struct.FormData_pg_class, ptr %22, i32 0, i32 15
  store i8 112, ptr %23, align 2
  %24 = load ptr, ptr %6, align 8
  %25 = getelementptr inbounds nuw %struct.RelationData, ptr %24, i32 0, i32 13
  %26 = load ptr, ptr %25, align 8
  %27 = getelementptr inbounds nuw %struct.FormData_pg_class, ptr %26, i32 0, i32 1
  %28 = getelementptr inbounds nuw %struct.nameData, ptr %27, i32 0, i32 0
  %29 = getelementptr inbounds [64 x i8], ptr %28, i64 0, i64 0
  %30 = getelementptr inbounds nuw %struct.RelFileLocator, ptr %3, i32 0, i32 2
  %31 = load i32, ptr %30, align 4
  %32 = call i32 (ptr, ptr, ...) @pg_sprintf(ptr noundef %29, ptr noundef @.str.6, i32 noundef %31)
  %33 = getelementptr inbounds nuw %struct.RelFileLocator, ptr %3, i32 0, i32 1
  %34 = load i32, ptr %33, align 4
  %35 = load ptr, ptr %6, align 8
  %36 = getelementptr inbounds nuw %struct.RelationData, ptr %35, i32 0, i32 16
  %37 = getelementptr inbounds nuw %struct.LockInfoData, ptr %36, i32 0, i32 0
  %38 = getelementptr inbounds nuw %struct.LockRelId, ptr %37, i32 0, i32 1
  store i32 %34, ptr %38, align 4
  %39 = getelementptr inbounds nuw %struct.RelFileLocator, ptr %3, i32 0, i32 2
  %40 = load i32, ptr %39, align 4
  %41 = load ptr, ptr %6, align 8
  %42 = getelementptr inbounds nuw %struct.RelationData, ptr %41, i32 0, i32 16
  %43 = getelementptr inbounds nuw %struct.LockInfoData, ptr %42, i32 0, i32 0
  %44 = getelementptr inbounds nuw %struct.LockRelId, ptr %43, i32 0, i32 0
  store i32 %40, ptr %44, align 4
  call void @llvm.memcpy.p0.p0.i64(ptr align 4 %7, ptr align 4 %3, i64 12, i1 false)
  %45 = getelementptr inbounds nuw { i64, i32 }, ptr %7, i32 0, i32 0
  %46 = load i64, ptr %45, align 4
  %47 = getelementptr inbounds nuw { i64, i32 }, ptr %7, i32 0, i32 1
  %48 = load i32, ptr %47, align 4
  %49 = call ptr @smgropen(i64 %46, i32 %48, i32 noundef -1)
  %50 = load ptr, ptr %6, align 8
  %51 = getelementptr inbounds nuw %struct.RelationData, ptr %50, i32 0, i32 1
  store ptr %49, ptr %51, align 8
  %52 = load ptr, ptr %6, align 8
  call void @llvm.lifetime.end.p0(i64 8, ptr %6) #10
  call void @llvm.lifetime.end.p0(i64 8, ptr %5) #10
  ret ptr %52
}