; Function Attrs: nounwind uwtable
define dso_local noundef ptr @CreateFakeRelcacheEntry(i64 %0, i32 %1) local_unnamed_addr #0 {
  %.sroa.013.sroa.3.0.extract.shift = lshr i64 %0, 32
  %.sroa.013.sroa.3.0.extract.trunc = trunc nuw i64 %.sroa.013.sroa.3.0.extract.shift to i32
  %3 = tail call ptr @palloc0(i64 noundef 632) #8
  %4 = getelementptr inbounds nuw i8, ptr %3, i64 488
  %5 = getelementptr inbounds nuw i8, ptr %3, i64 56
  store ptr %4, ptr %5, align 8
  store i64 %0, ptr %3, align 8
  %.sroa.4.0..sroa_idx = getelementptr inbounds nuw i8, ptr %3, i64 8
  store i32 %1, ptr %.sroa.4.0..sroa_idx, align 8
  %6 = getelementptr inbounds nuw i8, ptr %3, i64 28
  store i32 -1, ptr %6, align 4
  %7 = getelementptr inbounds nuw i8, ptr %3, i64 602
  store i8 112, ptr %7, align 2
  %8 = getelementptr inbounds nuw i8, ptr %3, i64 492
  %9 = tail call i32 (ptr, ptr, ...) @pg_sprintf(ptr noundef nonnull %8, ptr noundef nonnull @.str.6, i32 noundef %1) #8
  %10 = getelementptr inbounds nuw i8, ptr %3, i64 76
  %11 = getelementptr inbounds nuw i8, ptr %3, i64 80
  store i32 %.sroa.013.sroa.3.0.extract.trunc, ptr %11, align 4
  store i32 %1, ptr %10, align 4
  %12 = tail call ptr @smgropen(i64 %0, i32 %1, i32 noundef -1) #8
  %13 = getelementptr inbounds nuw i8, ptr %3, i64 16
  store ptr %12, ptr %13, align 8
  ret ptr %3
}